target datalayout = "e-m:e-p270:32:32-p271:32:32-p272:64:64-i64:64-i128:128-f80:128-n8:16:32:64-S128"
target triple = "x86_64-pc-linux-gnu"

%struct.job_record = type { i32, ptr, ptr, ptr, ptr, i16, i32, i32, i32, ptr, i32, ptr, ptr, i16, ptr, double, i64, ptr, ptr, ptr, ptr, ptr, ptr, i32, ptr, i32, i64, i64, i32, i32, ptr, i16, i64, i64, i8, i32, ptr, ptr, ptr, ptr, ptr, ptr, ptr, ptr, i32, ptr, ptr, i32, ptr, i32, ptr, i32, ptr, i32, ptr, ptr, ptr, ptr, ptr, ptr, i32, i16, i64, ptr, ptr, ptr, ptr, %struct.acct_policy_limit_set_t, i16, ptr, ptr, ptr, ptr, ptr, i32, ptr, ptr, ptr, ptr, ptr, i32, i32, ptr, ptr, ptr, i16, ptr, ptr, i8, ptr, ptr, i64, i64, i8, i32, i32, i8, i32, ptr, i32, i64, i32, ptr, ptr, ptr, i8, i16, i64, i32, ptr, ptr, ptr, ptr, ptr, i16, i32, ptr, ptr, ptr, ptr, i32, ptr, i32, i16, i64, ptr, i32, i32, ptr, i64, ptr, ptr, i64, i32, i32, i64, i32, i32, ptr, ptr, ptr, ptr, ptr, ptr, ptr, ptr, ptr, ptr, ptr, ptr, i32, ptr, i16, i16, i16, i16, ptr, i32, i32, i8, i64 }
%struct.acct_policy_limit_set_t = type { i16, i16, ptr }

@last_node_update = external global i64, align 8

; Function Attrs: nounwind uwtable
define dso_local void @allocate_nodes(ptr noundef %0) #0 {
  %2 = alloca ptr, align 8
  %3 = alloca ptr, align 8
  %4 = alloca i32, align 4
  store ptr %0, ptr %2, align 8
  call void @llvm.lifetime.start.p0(i64 8, ptr %3) #8
  call void @llvm.lifetime.start.p0(i64 4, ptr %4) #8
  store i32 0, ptr %4, align 4
  br label %5

5:                                                ; preds = %15, %1
  %6 = load ptr, ptr %2, align 8
  %7 = getelementptr inbounds nuw %struct.job_record, ptr %6, i32 0, i32 77
  %8 = load ptr, ptr %7, align 8
  %9 = call ptr @next_node_bitmap(ptr noundef %8, ptr noundef %4)
  store ptr %9, ptr %3, align 8
  %10 = icmp ne ptr %9, null
  br i1 %10, label %12, label %11

11:                                               ; preds = %5
  call void @llvm.lifetime.end.p0(i64 4, ptr %4) #8
  br label %18

12:                                               ; preds = %5
  %13 = load ptr, ptr %3, align 8
  %14 = load ptr, ptr %2, align 8
  call void @make_node_alloc(ptr noundef %13, ptr noundef %14)
  br label %15

15:                                               ; preds = %12
  %16 = load i32, ptr %4, align 4
  %17 = add nsw i32 %16, 1
  store i32 %17, ptr %4, align 4
  br label %5, !llvm.loop !8

18:                                               ; preds = %11
  %19 = load ptr, ptr %2, align 8
  call void @node_mgr_make_node_blocked(ptr noundef %19, i1 noundef zeroext true)
  %20 = call i64 @time(ptr noundef null) #8
  store i64 %20, ptr @last_node_update, align 8
  %21 = load ptr, ptr %2, align 8
  %22 = call i32 @license_job_get(ptr noundef %21, i1 noundef zeroext false)
  %23 = load ptr, ptr %2, align 8
  call void @set_initial_job_alias_list(ptr noundef %23)
  call void @llvm.lifetime.end.p0(i64 8, ptr %3) #8
  ret void
}