; Function Attrs: nounwind uwtable
define dso_local void @allocate_nodes(ptr noundef %0) local_unnamed_addr #0 {
  %2 = alloca i32, align 4
  call void @llvm.lifetime.start.p0(i64 4, ptr nonnull %2) #14
  %3 = getelementptr inbounds nuw i8, ptr %0, i64 584
  store i32 0, ptr %2, align 4
  %4 = load ptr, ptr %3, align 8
  %5 = call ptr @next_node_bitmap(ptr noundef %4, ptr noundef nonnull %2) #14
  %.not6 = icmp eq ptr %5, null
  br i1 %.not6, label %._crit_edge, label %.lr.ph

._crit_edge:                                      ; preds = %.lr.ph, %1
  call void @llvm.lifetime.end.p0(i64 4, ptr nonnull %2) #14
  call void @node_mgr_make_node_blocked(ptr noundef nonnull %0, i1 noundef zeroext true) #14
  %6 = call i64 @time(ptr noundef null) #14
  store i64 %6, ptr @last_node_update, align 8
  %7 = call i32 @license_job_get(ptr noundef nonnull %0, i1 noundef zeroext false) #14
  call void @set_initial_job_alias_list(ptr noundef nonnull %0)
  ret void

.lr.ph:                                           ; preds = %1, %.lr.ph
  %8 = phi ptr [ %12, %.lr.ph ], [ %5, %1 ]
  call void @make_node_alloc(ptr noundef nonnull %8, ptr noundef nonnull %0) #14
  %9 = load i32, ptr %2, align 4
  %10 = add nsw i32 %9, 1
  store i32 %10, ptr %2, align 4
  %11 = load ptr, ptr %3, align 8
  %12 = call ptr @next_node_bitmap(ptr noundef %11, ptr noundef nonnull %2) #14
  %.not = icmp eq ptr %12, null
  br i1 %.not, label %._crit_edge, label %.lr.ph, !llvm.loop !8
}